target datalayout = "e-m:e-p270:32:32-p271:32:32-p272:64:64-i64:64-i128:128-f80:128-n8:16:32:64-S128"
target triple = "x86_64-pc-linux-gnu"

%"class.cv::xobjdetect::CvLBPEvaluator::Feature" = type { %"class.cv::Rect_", [16 x i32], i32, i32, i32, i32, i32 }
%"class.cv::Rect_" = type { i32, i32, i32, i32 }

; Function Attrs: mustprogress nounwind uwtable
define linkonce_odr hidden void @_ZN2cv5Rect_IiEC2Eiiii(ptr noundef nonnull align 4 dereferenceable(16) %0, i32 noundef %1, i32 noundef %2, i32 noundef %3, i32 noundef %4) unnamed_addr #5 comdat align 2 {
  %6 = alloca ptr, align 8
  %7 = alloca i32, align 4
  %8 = alloca i32, align 4
  %9 = alloca i32, align 4
  %10 = alloca i32, align 4
  store ptr %0, ptr %6, align 8
  store i32 %1, ptr %7, align 4
  store i32 %2, ptr %8, align 4
  store i32 %3, ptr %9, align 4
  store i32 %4, ptr %10, align 4
  %11 = load ptr, ptr %6, align 8
  %12 = getelementptr inbounds %"class.cv::Rect_", ptr %11, i32 0, i32 0
  %13 = load i32, ptr %7, align 4
  store i32 %13, ptr %12, align 4
  %14 = getelementptr inbounds %"class.cv::Rect_", ptr %11, i32 0, i32 1
  %15 = load i32, ptr %8, align 4
  store i32 %15, ptr %14, align 4
  %16 = getelementptr inbounds %"class.cv::Rect_", ptr %11, i32 0, i32 2
  %17 = load i32, ptr %9, align 4
  store i32 %17, ptr %16, align 4
  %18 = getelementptr inbounds %"class.cv::Rect_", ptr %11, i32 0, i32 3
  %19 = load i32, ptr %10, align 4
  store i32 %19, ptr %18, align 4
  ret void
}

; Function Attrs: mustprogress uwtable
define hidden void @_ZN2cv10xobjdetect14CvLBPEvaluator7Feature10calcPointsEi(ptr noundef nonnull align 4 dereferenceable(100) %0, i32 noundef %1) #4 align 2 {
  %3 = alloca ptr, align 8
  %4 = alloca i32, align 4
  %5 = alloca %"class.cv::Rect_", align 4
  %6 = alloca %"class.cv::Rect_", align 4
  store ptr %0, ptr %3, align 8
  store i32 %1, ptr %4, align 4
  %7 = load ptr, ptr %3, align 8
  %8 = getelementptr inbounds %"class.cv::xobjdetect::CvLBPEvaluator::Feature", ptr %7, i32 0, i32 2
  %9 = load i32, ptr %8, align 4
  %10 = getelementptr inbounds %"class.cv::xobjdetect::CvLBPEvaluator::Feature", ptr %7, i32 0, i32 3
  %11 = load i32, ptr %10, align 4
  %12 = getelementptr inbounds %"class.cv::xobjdetect::CvLBPEvaluator::Feature", ptr %7, i32 0, i32 4
  %13 = load i32, ptr %12, align 4
  %14 = getelementptr inbounds %"class.cv::xobjdetect::CvLBPEvaluator::Feature", ptr %7, i32 0, i32 5
  %15 = load i32, ptr %14, align 4
  call void @_ZN2cv5Rect_IiEC2Eiiii(ptr noundef nonnull align 4 dereferenceable(16) %6, i32 noundef %9, i32 noundef %11, i32 noundef %13, i32 noundef %15)
  %16 = getelementptr inbounds %"class.cv::xobjdetect::CvLBPEvaluator::Feature", ptr %7, i32 0, i32 0
  call void @llvm.memcpy.p0.p0.i64(ptr align 4 %16, ptr align 4 %6, i64 16, i1 false)
  call void @llvm.memcpy.p0.p0.i64(ptr align 4 %5, ptr align 4 %16, i64 16, i1 false)
  %17 = getelementptr inbounds %"class.cv::Rect_", ptr %5, i32 0, i32 0
  %18 = load i32, ptr %17, align 4
  %19 = load i32, ptr %4, align 4
  %20 = getelementptr inbounds %"class.cv::Rect_", ptr %5, i32 0, i32 1
  %21 = load i32, ptr %20, align 4
  %22 = mul nsw i32 %19, %21
  %23 = add nsw i32 %18, %22
  %24 = getelementptr inbounds %"class.cv::xobjdetect::CvLBPEvaluator::Feature", ptr %7, i32 0, i32 1
  %25 = getelementptr inbounds [16 x i32], ptr %24, i64 0, i64 0
  store i32 %23, ptr %25, align 4
  %26 = getelementptr inbounds %"class.cv::Rect_", ptr %5, i32 0, i32 0
  %27 = load i32, ptr %26, align 4
  %28 = getelementptr inbounds %"class.cv::Rect_", ptr %5, i32 0, i32 2
  %29 = load i32, ptr %28, align 4
  %30 = add nsw i32 %27, %29
  %31 = load i32, ptr %4, align 4
  %32 = getelementptr inbounds %"class.cv::Rect_", ptr %5, i32 0, i32 1
  %33 = load i32, ptr %32, align 4
  %34 = mul nsw i32 %31, %33
  %35 = add nsw i32 %30, %34
  %36 = getelementptr inbounds %"class.cv::xobjdetect::CvLBPEvaluator::Feature", ptr %7, i32 0, i32 1
  %37 = getelementptr inbounds [16 x i32], ptr %36, i64 0, i64 1
  store i32 %35, ptr %37, align 4
  %38 = getelementptr inbounds %"class.cv::Rect_", ptr %5, i32 0, i32 0
  %39 = load i32, ptr %38, align 4
  %40 = load i32, ptr %4, align 4
  %41 = getelementptr inbounds %"class.cv::Rect_", ptr %5, i32 0, i32 1
  %42 = load i32, ptr %41, align 4
  %43 = getelementptr inbounds %"class.cv::Rect_", ptr %5, i32 0, i32 3
  %44 = load i32, ptr %43, align 4
  %45 = add nsw i32 %42, %44
  %46 = mul nsw i32 %40, %45
  %47 = add nsw i32 %39, %46
  %48 = getelementptr inbounds %"class.cv::xobjdetect::CvLBPEvaluator::Feature", ptr %7, i32 0, i32 1
  %49 = getelementptr inbounds [16 x i32], ptr %48, i64 0, i64 4
  store i32 %47, ptr %49, align 4
  %50 = getelementptr inbounds %"class.cv::Rect_", ptr %5, i32 0, i32 0
  %51 = load i32, ptr %50, align 4
  %52 = getelementptr inbounds %"class.cv::Rect_", ptr %5, i32 0, i32 2
  %53 = load i32, ptr %52, align 4
  %54 = add nsw i32 %51, %53
  %55 = load i32, ptr %4, align 4
  %56 = getelementptr inbounds %"class.cv::Rect_", ptr %5, i32 0, i32 1
  %57 = load i32, ptr %56, align 4
  %58 = getelementptr inbounds %"class.cv::Rect_", ptr %5, i32 0, i32 3
  %59 = load i32, ptr %58, align 4
  %60 = add nsw i32 %57, %59
  %61 = mul nsw i32 %55, %60
  %62 = add nsw i32 %54, %61
  %63 = getelementptr inbounds %"class.cv::xobjdetect::CvLBPEvaluator::Feature", ptr %7, i32 0, i32 1
  %64 = getelementptr inbounds [16 x i32], ptr %63, i64 0, i64 5
  store i32 %62, ptr %64, align 4
  %65 = getelementptr inbounds %"class.cv::xobjdetect::CvLBPEvaluator::Feature", ptr %7, i32 0, i32 0
  %66 = getelementptr inbounds %"class.cv::Rect_", ptr %65, i32 0, i32 2
  %67 = load i32, ptr %66, align 4
  %68 = mul nsw i32 2, %67
  %69 = getelementptr inbounds %"class.cv::Rect_", ptr %5, i32 0, i32 0
  %70 = load i32, ptr %69, align 4
  %71 = add nsw i32 %70, %68
  store i32 %71, ptr %69, align 4
  %72 = getelementptr inbounds %"class.cv::Rect_", ptr %5, i32 0, i32 0
  %73 = load i32, ptr %72, align 4
  %74 = load i32, ptr %4, align 4
  %75 = getelementptr inbounds %"class.cv::Rect_", ptr %5, i32 0, i32 1
  %76 = load i32, ptr %75, align 4
  %77 = mul nsw i32 %74, %76
  %78 = add nsw i32 %73, %77
  %79 = getelementptr inbounds %"class.cv::xobjdetect::CvLBPEvaluator::Feature", ptr %7, i32 0, i32 1
  %80 = getelementptr inbounds [16 x i32], ptr %79, i64 0, i64 2
  store i32 %78, ptr %80, align 4
  %81 = getelementptr inbounds %"class.cv::Rect_", ptr %5, i32 0, i32 0
  %82 = load i32, ptr %81, align 4
  %83 = getelementptr inbounds %"class.cv::Rect_", ptr %5, i32 0, i32 2
  %84 = load i32, ptr %83, align 4
  %85 = add nsw i32 %82, %84
  %86 = load i32, ptr %4, align 4
  %87 = getelementptr inbounds %"class.cv::Rect_", ptr %5, i32 0, i32 1
  %88 = load i32, ptr %87, align 4
  %89 = mul nsw i32 %86, %88
  %90 = add nsw i32 %85, %89
  %91 = getelementptr inbounds %"class.cv::xobjdetect::CvLBPEvaluator::Feature", ptr %7, i32 0, i32 1
  %92 = getelementptr inbounds [16 x i32], ptr %91, i64 0, i64 3
  store i32 %90, ptr %92, align 4
  %93 = getelementptr inbounds %"class.cv::Rect_", ptr %5, i32 0, i32 0
  %94 = load i32, ptr %93, align 4
  %95 = load i32, ptr %4, align 4
  %96 = getelementptr inbounds %"class.cv::Rect_", ptr %5, i32 0, i32 1
  %97 = load i32, ptr %96, align 4
  %98 = getelementptr inbounds %"class.cv::Rect_", ptr %5, i32 0, i32 3
  %99 = load i32, ptr %98, align 4
  %100 = add nsw i32 %97, %99
  %101 = mul nsw i32 %95, %100
  %102 = add nsw i32 %94, %101
  %103 = getelementptr inbounds %"class.cv::xobjdetect::CvLBPEvaluator::Feature", ptr %7, i32 0, i32 1
  %104 = getelementptr inbounds [16 x i32], ptr %103, i64 0, i64 6
  store i32 %102, ptr %104, align 4
  %105 = getelementptr inbounds %"class.cv::Rect_", ptr %5, i32 0, i32 0
  %106 = load i32, ptr %105, align 4
  %107 = getelementptr inbounds %"class.cv::Rect_", ptr %5, i32 0, i32 2
  %108 = load i32, ptr %107, align 4
  %109 = add nsw i32 %106, %108
  %110 = load i32, ptr %4, align 4
  %111 = getelementptr inbounds %"class.cv::Rect_", ptr %5, i32 0, i32 1
  %112 = load i32, ptr %111, align 4
  %113 = getelementptr inbounds %"class.cv::Rect_", ptr %5, i32 0, i32 3
  %114 = load i32, ptr %113, align 4
  %115 = add nsw i32 %112, %114
  %116 = mul nsw i32 %110, %115
  %117 = add nsw i32 %109, %116
  %118 = getelementptr inbounds %"class.cv::xobjdetect::CvLBPEvaluator::Feature", ptr %7, i32 0, i32 1
  %119 = getelementptr inbounds [16 x i32], ptr %118, i64 0, i64 7
  store i32 %117, ptr %119, align 4
  %120 = getelementptr inbounds %"class.cv::xobjdetect::CvLBPEvaluator::Feature", ptr %7, i32 0, i32 0
  %121 = getelementptr inbounds %"class.cv::Rect_", ptr %120, i32 0, i32 3
  %122 = load i32, ptr %121, align 4
  %123 = mul nsw i32 2, %122
  %124 = getelementptr inbounds %"class.cv::Rect_", ptr %5, i32 0, i32 1
  %125 = load i32, ptr %124, align 4
  %126 = add nsw i32 %125, %123
  store i32 %126, ptr %124, align 4
  %127 = getelementptr inbounds %"class.cv::Rect_", ptr %5, i32 0, i32 0
  %128 = load i32, ptr %127, align 4
  %129 = load i32, ptr %4, align 4
  %130 = getelementptr inbounds %"class.cv::Rect_", ptr %5, i32 0, i32 1
  %131 = load i32, ptr %130, align 4
  %132 = mul nsw i32 %129, %131
  %133 = add nsw i32 %128, %132
  %134 = getelementptr inbounds %"class.cv::xobjdetect::CvLBPEvaluator::Feature", ptr %7, i32 0, i32 1
  %135 = getelementptr inbounds [16 x i32], ptr %134, i64 0, i64 10
  store i32 %133, ptr %135, align 4
  %136 = getelementptr inbounds %"class.cv::Rect_", ptr %5, i32 0, i32 0
  %137 = load i32, ptr %136, align 4
  %138 = getelementptr inbounds %"class.cv::Rect_", ptr %5, i32 0, i32 2
  %139 = load i32, ptr %138, align 4
  %140 = add nsw i32 %137, %139
  %141 = load i32, ptr %4, align 4
  %142 = getelementptr inbounds %"class.cv::Rect_", ptr %5, i32 0, i32 1
  %143 = load i32, ptr %142, align 4
  %144 = mul nsw i32 %141, %143
  %145 = add nsw i32 %140, %144
  %146 = getelementptr inbounds %"class.cv::xobjdetect::CvLBPEvaluator::Feature", ptr %7, i32 0, i32 1
  %147 = getelementptr inbounds [16 x i32], ptr %146, i64 0, i64 11
  store i32 %145, ptr %147, align 4
  %148 = getelementptr inbounds %"class.cv::Rect_", ptr %5, i32 0, i32 0
  %149 = load i32, ptr %148, align 4
  %150 = load i32, ptr %4, align 4
  %151 = getelementptr inbounds %"class.cv::Rect_", ptr %5, i32 0, i32 1
  %152 = load i32, ptr %151, align 4
  %153 = getelementptr inbounds %"class.cv::Rect_", ptr %5, i32 0, i32 3
  %154 = load i32, ptr %153, align 4
  %155 = add nsw i32 %152, %154
  %156 = mul nsw i32 %150, %155
  %157 = add nsw i32 %149, %156
  %158 = getelementptr inbounds %"class.cv::xobjdetect::CvLBPEvaluator::Feature", ptr %7, i32 0, i32 1
  %159 = getelementptr inbounds [16 x i32], ptr %158, i64 0, i64 14
  store i32 %157, ptr %159, align 4
  %160 = getelementptr inbounds %"class.cv::Rect_", ptr %5, i32 0, i32 0
  %161 = load i32, ptr %160, align 4
  %162 = getelementptr inbounds %"class.cv::Rect_", ptr %5, i32 0, i32 2
  %163 = load i32, ptr %162, align 4
  %164 = add nsw i32 %161, %163
  %165 = load i32, ptr %4, align 4
  %166 = getelementptr inbounds %"class.cv::Rect_", ptr %5, i32 0, i32 1
  %167 = load i32, ptr %166, align 4
  %168 = getelementptr inbounds %"class.cv::Rect_", ptr %5, i32 0, i32 3
  %169 = load i32, ptr %168, align 4
  %170 = add nsw i32 %167, %169
  %171 = mul nsw i32 %165, %170
  %172 = add nsw i32 %164, %171
  %173 = getelementptr inbounds %"class.cv::xobjdetect::CvLBPEvaluator::Feature", ptr %7, i32 0, i32 1
  %174 = getelementptr inbounds [16 x i32], ptr %173, i64 0, i64 15
  store i32 %172, ptr %174, align 4
  %175 = getelementptr inbounds %"class.cv::xobjdetect::CvLBPEvaluator::Feature", ptr %7, i32 0, i32 0
  %176 = getelementptr inbounds %"class.cv::Rect_", ptr %175, i32 0, i32 2
  %177 = load i32, ptr %176, align 4
  %178 = mul nsw i32 2, %177
  %179 = getelementptr inbounds %"class.cv::Rect_", ptr %5, i32 0, i32 0
  %180 = load i32, ptr %179, align 4
  %181 = sub nsw i32 %180, %178
  store i32 %181, ptr %179, align 4
  %182 = getelementptr inbounds %"class.cv::Rect_", ptr %5, i32 0, i32 0
  %183 = load i32, ptr %182, align 4
  %184 = load i32, ptr %4, align 4
  %185 = getelementptr inbounds %"class.cv::Rect_", ptr %5, i32 0, i32 1
  %186 = load i32, ptr %185, align 4
  %187 = mul nsw i32 %184, %186
  %188 = add nsw i32 %183, %187
  %189 = getelementptr inbounds %"class.cv::xobjdetect::CvLBPEvaluator::Feature", ptr %7, i32 0, i32 1
  %190 = getelementptr inbounds [16 x i32], ptr %189, i64 0, i64 8
  store i32 %188, ptr %190, align 4
  %191 = getelementptr inbounds %"class.cv::Rect_", ptr %5, i32 0, i32 0
  %192 = load i32, ptr %191, align 4
  %193 = getelementptr inbounds %"class.cv::Rect_", ptr %5, i32 0, i32 2
  %194 = load i32, ptr %193, align 4
  %195 = add nsw i32 %192, %194
  %196 = load i32, ptr %4, align 4
  %197 = getelementptr inbounds %"class.cv::Rect_", ptr %5, i32 0, i32 1
  %198 = load i32, ptr %197, align 4
  %199 = mul nsw i32 %196, %198
  %200 = add nsw i32 %195, %199
  %201 = getelementptr inbounds %"class.cv::xobjdetect::CvLBPEvaluator::Feature", ptr %7, i32 0, i32 1
  %202 = getelementptr inbounds [16 x i32], ptr %201, i64 0, i64 9
  store i32 %200, ptr %202, align 4
  %203 = getelementptr inbounds %"class.cv::Rect_", ptr %5, i32 0, i32 0
  %204 = load i32, ptr %203, align 4
  %205 = load i32, ptr %4, align 4
  %206 = getelementptr inbounds %"class.cv::Rect_", ptr %5, i32 0, i32 1
  %207 = load i32, ptr %206, align 4
  %208 = getelementptr inbounds %"class.cv::Rect_", ptr %5, i32 0, i32 3
  %209 = load i32, ptr %208, align 4
  %210 = add nsw i32 %207, %209
  %211 = mul nsw i32 %205, %210
  %212 = add nsw i32 %204, %211
  %213 = getelementptr inbounds %"class.cv::xobjdetect::CvLBPEvaluator::Feature", ptr %7, i32 0, i32 1
  %214 = getelementptr inbounds [16 x i32], ptr %213, i64 0, i64 12
  store i32 %212, ptr %214, align 4
  %215 = getelementptr inbounds %"class.cv::Rect_", ptr %5, i32 0, i32 0
  %216 = load i32, ptr %215, align 4
  %217 = getelementptr inbounds %"class.cv::Rect_", ptr %5, i32 0, i32 2
  %218 = load i32, ptr %217, align 4
  %219 = add nsw i32 %216, %218
  %220 = load i32, ptr %4, align 4
  %221 = getelementptr inbounds %"class.cv::Rect_", ptr %5, i32 0, i32 1
  %222 = load i32, ptr %221, align 4
  %223 = getelementptr inbounds %"class.cv::Rect_", ptr %5, i32 0, i32 3
  %224 = load i32, ptr %223, align 4
  %225 = add nsw i32 %222, %224
  %226 = mul nsw i32 %220, %225
  %227 = add nsw i32 %219, %226
  %228 = getelementptr inbounds %"class.cv::xobjdetect::CvLBPEvaluator::Feature", ptr %7, i32 0, i32 1
  %229 = getelementptr inbounds [16 x i32], ptr %228, i64 0, i64 13
  store i32 %227, ptr %229, align 4
  %230 = load i32, ptr %4, align 4
  %231 = getelementptr inbounds %"class.cv::xobjdetect::CvLBPEvaluator::Feature", ptr %7, i32 0, i32 6
  store i32 %230, ptr %231, align 4
  ret void
}

; Function Attrs: mustprogress nounwind uwtable
define linkonce_odr hidden void @_ZN2cv5Rect_IiEC2Ev(ptr noundef nonnull align 4 dereferenceable(16) %0) unnamed_addr #5 comdat align 2 {
  %2 = alloca ptr, align 8
  store ptr %0, ptr %2, align 8
  %3 = load ptr, ptr %2, align 8
  %4 = getelementptr inbounds %"class.cv::Rect_", ptr %3, i32 0, i32 0
  store i32 0, ptr %4, align 4
  %5 = getelementptr inbounds %"class.cv::Rect_", ptr %3, i32 0, i32 1
  store i32 0, ptr %5, align 4
  %6 = getelementptr inbounds %"class.cv::Rect_", ptr %3, i32 0, i32 2
  store i32 0, ptr %6, align 4
  %7 = getelementptr inbounds %"class.cv::Rect_", ptr %3, i32 0, i32 3
  store i32 0, ptr %7, align 4
  ret void
}

; Function Attrs: mustprogress uwtable
define hidden void @_ZN2cv10xobjdetect14CvLBPEvaluator7FeatureC2Eiiiii(ptr noundef nonnull align 4 dereferenceable(100) %0, i32 noundef %1, i32 noundef %2, i32 noundef %3, i32 noundef %4, i32 noundef %5) unnamed_addr #4 align 2 {
  %7 = alloca ptr, align 8
  %8 = alloca i32, align 4
  %9 = alloca i32, align 4
  %10 = alloca i32, align 4
  %11 = alloca i32, align 4
  %12 = alloca i32, align 4
  store ptr %0, ptr %7, align 8
  store i32 %1, ptr %8, align 4
  store i32 %2, ptr %9, align 4
  store i32 %3, ptr %10, align 4
  store i32 %4, ptr %11, align 4
  store i32 %5, ptr %12, align 4
  %13 = load ptr, ptr %7, align 8
  %14 = getelementptr inbounds %"class.cv::xobjdetect::CvLBPEvaluator::Feature", ptr %13, i32 0, i32 0
  call void @_ZN2cv5Rect_IiEC2Ev(ptr noundef nonnull align 4 dereferenceable(16) %14)
  %15 = load i32, ptr %9, align 4
  %16 = getelementptr inbounds %"class.cv::xobjdetect::CvLBPEvaluator::Feature", ptr %13, i32 0, i32 2
  store i32 %15, ptr %16, align 4
  %17 = load i32, ptr %10, align 4
  %18 = getelementptr inbounds %"class.cv::xobjdetect::CvLBPEvaluator::Feature", ptr %13, i32 0, i32 3
  store i32 %17, ptr %18, align 4
  %19 = load i32, ptr %11, align 4
  %20 = getelementptr inbounds %"class.cv::xobjdetect::CvLBPEvaluator::Feature", ptr %13, i32 0, i32 4
  store i32 %19, ptr %20, align 4
  %21 = load i32, ptr %12, align 4
  %22 = getelementptr inbounds %"class.cv::xobjdetect::CvLBPEvaluator::Feature", ptr %13, i32 0, i32 5
  store i32 %21, ptr %22, align 4
  %23 = load i32, ptr %8, align 4
  %24 = getelementptr inbounds %"class.cv::xobjdetect::CvLBPEvaluator::Feature", ptr %13, i32 0, i32 6
  store i32 %23, ptr %24, align 4
  %25 = load i32, ptr %8, align 4
  call void @_ZN2cv10xobjdetect14CvLBPEvaluator7Feature10calcPointsEi(ptr noundef nonnull align 4 dereferenceable(100) %13, i32 noundef %25)
  ret void
}