; Function Attrs: mustprogress nofree norecurse nosync nounwind willreturn memory(argmem: write) uwtable
define hidden void @_ZN2cv10xobjdetect14CvLBPEvaluator7FeatureC2Eiiiii(ptr nocapture noundef nonnull writeonly align 4 dereferenceable(100) %0, i32 noundef %1, i32 noundef %2, i32 noundef %3, i32 noundef %4, i32 noundef %5) unnamed_addr #7 align 2 {
  %7 = getelementptr inbounds i8, ptr %0, i64 80
  store i32 %2, ptr %7, align 4
  %8 = getelementptr inbounds i8, ptr %0, i64 84
  store i32 %3, ptr %8, align 4
  %9 = getelementptr inbounds i8, ptr %0, i64 88
  store i32 %4, ptr %9, align 4
  %10 = getelementptr inbounds i8, ptr %0, i64 92
  store i32 %5, ptr %10, align 4
  %11 = getelementptr inbounds i8, ptr %0, i64 96
  store i32 %2, ptr %0, align 4
  %.sroa.2.0..sroa_idx.i = getelementptr inbounds i8, ptr %0, i64 4
  store i32 %3, ptr %.sroa.2.0..sroa_idx.i, align 4
  %.sroa.3.0..sroa_idx.i = getelementptr inbounds i8, ptr %0, i64 8
  store i32 %4, ptr %.sroa.3.0..sroa_idx.i, align 4
  %.sroa.4.0..sroa_idx.i = getelementptr inbounds i8, ptr %0, i64 12
  store i32 %5, ptr %.sroa.4.0..sroa_idx.i, align 4
  %12 = mul nsw i32 %3, %1
  %13 = add nsw i32 %12, %2
  %14 = getelementptr inbounds i8, ptr %0, i64 16
  store i32 %13, ptr %14, align 4
  %15 = add nsw i32 %4, %2
  %16 = add nsw i32 %15, %12
  %17 = getelementptr inbounds i8, ptr %0, i64 20
  store i32 %16, ptr %17, align 4
  %18 = add nsw i32 %5, %3
  %19 = mul nsw i32 %18, %1
  %20 = add nsw i32 %19, %2
  %21 = getelementptr inbounds i8, ptr %0, i64 32
  store i32 %20, ptr %21, align 4
  %22 = add nsw i32 %19, %15
  %23 = getelementptr inbounds i8, ptr %0, i64 36
  store i32 %22, ptr %23, align 4
  %24 = shl nsw i32 %4, 1
  %25 = add nsw i32 %24, %2
  %26 = add nsw i32 %25, %12
  %27 = getelementptr inbounds i8, ptr %0, i64 24
  store i32 %26, ptr %27, align 4
  %28 = add nsw i32 %25, %4
  %29 = add nsw i32 %28, %12
  %30 = getelementptr inbounds i8, ptr %0, i64 28
  store i32 %29, ptr %30, align 4
  %31 = add nsw i32 %19, %25
  %32 = getelementptr inbounds i8, ptr %0, i64 40
  store i32 %31, ptr %32, align 4
  %33 = add nsw i32 %28, %19
  %34 = getelementptr inbounds i8, ptr %0, i64 44
  store i32 %33, ptr %34, align 4
  %35 = shl nsw i32 %5, 1
  %36 = add nsw i32 %35, %3
  %37 = mul nsw i32 %36, %1
  %38 = add nsw i32 %37, %25
  %39 = getelementptr inbounds i8, ptr %0, i64 56
  store i32 %38, ptr %39, align 4
  %40 = add nsw i32 %37, %28
  %41 = getelementptr inbounds i8, ptr %0, i64 60
  store i32 %40, ptr %41, align 4
  %42 = add nsw i32 %36, %5
  %43 = mul nsw i32 %42, %1
  %44 = add nsw i32 %43, %25
  %45 = getelementptr inbounds i8, ptr %0, i64 72
  store i32 %44, ptr %45, align 4
  %46 = add nsw i32 %43, %28
  %47 = getelementptr inbounds i8, ptr %0, i64 76
  store i32 %46, ptr %47, align 4
  %48 = add nsw i32 %37, %2
  %49 = getelementptr inbounds i8, ptr %0, i64 48
  store i32 %48, ptr %49, align 4
  %50 = add nsw i32 %37, %15
  %51 = getelementptr inbounds i8, ptr %0, i64 52
  store i32 %50, ptr %51, align 4
  %52 = add nsw i32 %43, %2
  %53 = getelementptr inbounds i8, ptr %0, i64 64
  store i32 %52, ptr %53, align 4
  %54 = add nsw i32 %43, %15
  %55 = getelementptr inbounds i8, ptr %0, i64 68
  store i32 %54, ptr %55, align 4
  store i32 %1, ptr %11, align 4
  ret void
}